target datalayout = "e-m:e-p270:32:32-p271:32:32-p272:64:64-i64:64-i128:128-f80:128-n8:16:32:64-S128"
target triple = "x86_64-pc-linux-gnu"

@_ZZN24TimingSuspendableVisitor6DepVtx11rttiClassIdEvE15aStaticVariable = linkonce_odr dso_local global i8 0, comdat, align 1
@_ZZN13V3GraphVertex11rttiClassIdEvE15aStaticVariable = linkonce_odr dso_local global i8 0, comdat, align 1
@_ZZN24TimingSuspendableVisitor13SuspendDepVtx11rttiClassIdEvE15aStaticVariable = linkonce_odr dso_local global i8 0, comdat, align 1

; Function Attrs: mustprogress nounwind uwtable
define internal noundef zeroext i1 @_ZN14V3RttiInternalL16isClassIdOfOneOfEm9VTypeListIJEE(i64 noundef %0) #5 {
  %2 = alloca i64, align 8
  store i64 %0, ptr %2, align 8
  ret i1 false
}

; Function Attrs: mustprogress nounwind uwtable
define linkonce_odr dso_local noundef i64 @_ZN13V3GraphVertex11rttiClassIdEv() #5 comdat align 2 {
  ret i64 ptrtoint (ptr @_ZZN13V3GraphVertex11rttiClassIdEvE15aStaticVariable to i64)
}

; Function Attrs: mustprogress uwtable
define internal noundef zeroext i1 @_ZN14V3RttiInternalL16isClassIdOfOneOfI13V3GraphVertexJEEEbm9VTypeListIJT_DpT0_EE(i64 noundef %0) #4 {
  %2 = alloca i64, align 8
  store i64 %0, ptr %2, align 8
  %3 = load i64, ptr %2, align 8
  %4 = call noundef i64 @_ZN13V3GraphVertex11rttiClassIdEv()
  %5 = icmp eq i64 %3, %4
  br i1 %5, label %9, label %6

6:                                                ; preds = %1
  %7 = load i64, ptr %2, align 8
  %8 = call noundef zeroext i1 @_ZN14V3RttiInternalL16isClassIdOfOneOfEm9VTypeListIJEE(i64 noundef %7)
  br label %9

9:                                                ; preds = %6, %1
  %10 = phi i1 [ true, %1 ], [ %8, %6 ]
  ret i1 %10
}

; Function Attrs: mustprogress nounwind uwtable
define linkonce_odr dso_local noundef i64 @_ZN24TimingSuspendableVisitor6DepVtx11rttiClassIdEv() #5 comdat align 2 {
  ret i64 ptrtoint (ptr @_ZZN24TimingSuspendableVisitor6DepVtx11rttiClassIdEvE15aStaticVariable to i64)
}

; Function Attrs: mustprogress uwtable
define internal noundef zeroext i1 @_ZN14V3RttiInternalL16isClassIdOfOneOfIN24TimingSuspendableVisitor6DepVtxEJ13V3GraphVertexEEEbm9VTypeListIJT_DpT0_EE(i64 noundef %0) #4 {
  %2 = alloca i64, align 8
  store i64 %0, ptr %2, align 8
  %3 = load i64, ptr %2, align 8
  %4 = call noundef i64 @_ZN24TimingSuspendableVisitor6DepVtx11rttiClassIdEv()
  %5 = icmp eq i64 %3, %4
  br i1 %5, label %9, label %6

6:                                                ; preds = %1
  %7 = load i64, ptr %2, align 8
  %8 = call noundef zeroext i1 @_ZN14V3RttiInternalL16isClassIdOfOneOfI13V3GraphVertexJEEEbm9VTypeListIJT_DpT0_EE(i64 noundef %7)
  br label %9

9:                                                ; preds = %6, %1
  %10 = phi i1 [ true, %1 ], [ %8, %6 ]
  ret i1 %10
}

; Function Attrs: mustprogress nounwind uwtable
define linkonce_odr dso_local noundef i64 @_ZN24TimingSuspendableVisitor13SuspendDepVtx11rttiClassIdEv() #5 comdat align 2 {
  ret i64 ptrtoint (ptr @_ZZN24TimingSuspendableVisitor13SuspendDepVtx11rttiClassIdEvE15aStaticVariable to i64)
}

; Function Attrs: mustprogress uwtable
define internal noundef zeroext i1 @_ZN14V3RttiInternalL16isClassIdOfOneOfIN24TimingSuspendableVisitor13SuspendDepVtxEJNS1_6DepVtxE13V3GraphVertexEEEbm9VTypeListIJT_DpT0_EE(i64 noundef %0) #4 {
  %2 = alloca i64, align 8
  store i64 %0, ptr %2, align 8
  %3 = load i64, ptr %2, align 8
  %4 = call noundef i64 @_ZN24TimingSuspendableVisitor13SuspendDepVtx11rttiClassIdEv()
  %5 = icmp eq i64 %3, %4
  br i1 %5, label %9, label %6

6:                                                ; preds = %1
  %7 = load i64, ptr %2, align 8
  %8 = call noundef zeroext i1 @_ZN14V3RttiInternalL16isClassIdOfOneOfIN24TimingSuspendableVisitor6DepVtxEJ13V3GraphVertexEEEbm9VTypeListIJT_DpT0_EE(i64 noundef %7)
  br label %9

9:                                                ; preds = %6, %1
  %10 = phi i1 [ true, %1 ], [ %8, %6 ]
  ret i1 %10
}